Certificate:
    Data:
        Version: 3 (0x2)
        Serial Number: 1 (0x1)
        Signature Algorithm: sha256WithRSAEncryption
        Issuer: C=ES, ST=Seville, L=Seville, O=ETSI, OU=Dpto de Telem\xC3\x83\xC2\xA1tica, CN=laptop-amg/emailAddress=andresmargar98@gmail.com
        Validity
            Not Before: Mar 26 22:28:15 2020 GMT
            Not After : Mar 26 22:28:15 2021 GMT
        Subject: C=ES, ST=Seville, L=Seville, O=ETSI, OU=Dpto de Telem\xC3\x83\xC2\xA1tica, CN=laptop-amg/emailAddress=andresmargar98@gmail.com
        Subject Public Key Info:
            Public Key Algorithm: rsaEncryption
                RSA Public-Key: (2048 bit)
                Modulus:
                    00:9f:da:5f:3c:61:67:8a:18:cd:e1:e0:7c:49:17:
                    06:80:8d:f1:df:ce:2a:58:35:c5:d1:51:d1:4f:97:
                    36:0d:6c:6c:b1:09:19:bb:f8:b7:e9:5f:73:cd:a2:
                    92:4e:0a:53:5c:ef:0b:6b:02:d9:5f:45:83:c0:13:
                    5c:d8:89:27:5c:60:4a:21:09:92:12:85:a6:ae:1c:
                    6d:8b:89:7a:26:3d:0c:06:f0:7d:b0:57:5a:bb:68:
                    48:7b:e3:ef:41:61:0a:b0:bc:42:9c:42:62:72:04:
                    55:14:ce:d6:87:d3:60:4f:73:f3:ec:e0:1d:53:5e:
                    d1:c4:36:98:03:2a:e7:69:37:95:a1:97:5a:ff:e6:
                    ce:0f:44:12:19:2f:c6:23:ba:64:ee:84:37:d1:40:
                    aa:56:16:c9:8d:83:0b:69:20:22:d9:fe:61:ff:76:
                    9b:b2:e1:ac:f7:b7:46:68:e6:e0:f4:e0:9d:ee:15:
                    62:25:f2:48:f4:dd:57:4d:56:93:7e:e6:40:e8:d7:
                    aa:a6:03:ec:76:0b:6a:af:f5:84:d7:75:c8:7b:d8:
                    c8:db:06:3f:21:f7:be:d8:72:ae:e2:37:b1:92:41:
                    c9:ba:eb:cf:96:94:5d:3d:f0:c3:61:18:15:49:36:
                    f2:6e:ae:42:04:bf:97:e6:96:86:9f:eb:30:45:a3:
                    10:4b
                Exponent: 65537 (0x10001)
        X509v3 extensions:
            X509v3 Basic Constraints: 
                CA:FALSE
            Netscape Comment: 
                OpenSSL Generated Certificate
            X509v3 Subject Key Identifier: 
                FA:D0:74:FA:15:1A:A7:7D:5A:D3:61:23:6B:B2:D4:72:37:1F:B4:F6
            X509v3 Authority Key Identifier: 
                keyid:D2:FC:16:8D:A2:70:BE:BC:C4:41:87:7A:1D:6E:2F:27:01:E3:2B:BB

    Signature Algorithm: sha256WithRSAEncryption
         c6:62:ee:df:f5:51:ba:5a:61:dc:11:74:0f:30:7e:aa:20:67:
         60:59:0e:f3:c6:43:7f:66:65:b5:ee:5d:8d:cd:40:d8:00:e7:
         17:fa:d5:8e:1a:fc:c2:00:21:5c:5f:22:d4:4b:28:a6:34:d5:
         f4:30:d1:52:80:e8:c7:6b:c3:0b:20:33:9a:13:30:62:f0:09:
         bd:3a:f3:1a:7e:fa:d3:a5:3e:ba:60:57:1b:73:e9:cf:e3:33:
         42:f2:25:d2:8a:bc:29:9a:5a:5c:f7:e9:c3:6c:10:c8:8e:a9:
         7f:e2:0a:1a:2c:e6:d5:ea:38:13:09:a1:e6:ba:13:fd:fd:6e:
         5d:ee:62:ae:25:29:95:32:1e:a1:18:1d:25:10:a7:4d:33:ec:
         13:bf:11:99:4f:2a:8b:6e:82:24:63:38:55:0f:7b:e4:91:35:
         db:c1:01:62:82:8e:88:90:b8:98:bc:05:bd:17:fe:ec:11:14:
         dc:8a:a4:1d:1b:7f:86:ac:f1:b9:f2:ab:ae:a4:3f:ae:bf:6d:
         37:fe:ab:f0:83:16:6e:ee:d3:8a:eb:a7:91:c9:49:87:e4:0f:
         bf:5e:5e:17:85:79:4e:23:5b:10:70:0d:13:f2:4b:27:59:3f:
         70:fc:94:fe:90:b9:a0:7e:82:8e:7b:74:e9:b4:06:1f:4f:d3:
         26:33:23:ee
-----BEGIN CERTIFICATE-----
MIIENDCCAxygAwIBAgIBATANBgkqhkiG9w0BAQsFADCBnjELMAkGA1UEBhMCRVMx
EDAOBgNVBAgMB1NldmlsbGUxEDAOBgNVBAcMB1NldmlsbGUxDTALBgNVBAoMBEVU
U0kxHjAcBgNVBAsMFURwdG8gZGUgVGVsZW3Dg8KhdGljYTETMBEGA1UEAwwKbGFw
dG9wLWFtZzEnMCUGCSqGSIb3DQEJARYYYW5kcmVzbWFyZ2FyOThAZ21haWwuY29t
MB4XDTIwMDMyNjIyMjgxNVoXDTIxMDMyNjIyMjgxNVowgZ4xCzAJBgNVBAYTAkVT
MRAwDgYDVQQIDAdTZXZpbGxlMRAwDgYDVQQHDAdTZXZpbGxlMQ0wCwYDVQQKDARF
VFNJMR4wHAYDVQQLDBVEcHRvIGRlIFRlbGVtw4PCoXRpY2ExEzARBgNVBAMMCmxh
cHRvcC1hbWcxJzAlBgkqhkiG9w0BCQEWGGFuZHJlc21hcmdhcjk4QGdtYWlsLmNv
bTCCASIwDQYJKoZIhvcNAQEBBQADggEPADCCAQoCggEBAJ/aXzxhZ4oYzeHgfEkX
BoCN8d/OKlg1xdFR0U+XNg1sbLEJGbv4t+lfc82ikk4KU1zvC2sC2V9Fg8ATXNiJ
J1xgSiEJkhKFpq4cbYuJeiY9DAbwfbBXWrtoSHvj70FhCrC8QpxCYnIEVRTO1ofT
YE9z8+zgHVNe0cQ2mAMq52k3laGXWv/mzg9EEhkvxiO6ZO6EN9FAqlYWyY2DC2kg
Itn+Yf92m7LhrPe3Rmjm4PTgne4VYiXySPTdV01Wk37mQOjXqqYD7HYLaq/1hNd1
yHvYyNsGPyH3vthyruI3sZJBybrrz5aUXT3ww2EYFUk28m6uQgS/l+aWhp/rMEWj
EEsCAwEAAaN7MHkwCQYDVR0TBAIwADAsBglghkgBhvhCAQ0EHxYdT3BlblNTTCBH
ZW5lcmF0ZWQgQ2VydGlmaWNhdGUwHQYDVR0OBBYEFPrQdPoVGqd9WtNhI2uy1HI3
H7T2MB8GA1UdIwQYMBaAFNL8Fo2icL68xEGHeh1uLycB4yu7MA0GCSqGSIb3DQEB
CwUAA4IBAQDGYu7f9VG6WmHcEXQPMH6qIGdgWQ7zxkN/ZmW17l2NzUDYAOcX+tWO
GvzCACFcXyLUSyimNNX0MNFSgOjHa8MLIDOaEzBi8Am9OvMafvrTpT66YFcbc+nP
4zNC8iXSirwpmlpc9+nDbBDIjql/4goaLObV6jgTCaHmuhP9/W5d7mKuJSmVMh6h
GB0lEKdNM+wTvxGZTyqLboIkYzhVD3vkkTXbwQFigo6IkLiYvAW9F/7sERTciqQd
G3+GrPG58quupD+uv203/qvwgxZu7tOK66eRyUmH5A+/Xl4XhXlOI1sQcA0T8ksn
WT9w/JT+kLmgfoKOe3TptAYfT9MmMyPu
-----END CERTIFICATE-----
