Certificate:
    Data:
        Version: 3 (0x2)
        Serial Number: 2 (0x2)
        Signature Algorithm: sha256WithRSAEncryption
        Issuer: C=ES, ST=Seville, L=Seville, O=ETSI, OU=Dpto de Telem\xC3\x83\xC2\xA1tica, CN=laptop-amg/emailAddress=andresmargar98@gmail.com
        Validity
            Not Before: Mar 26 22:32:10 2020 GMT
            Not After : Mar 26 22:32:10 2021 GMT
        Subject: C=ES, ST=Seville, L=Seville, O=ETSI, OU=Dpto de Telem\xC3\x83\xC2\xA1tica, CN=Nintendo 3DS/emailAddress=andresmargar98@gmail.com
        Subject Public Key Info:
            Public Key Algorithm: rsaEncryption
                RSA Public-Key: (2048 bit)
                Modulus:
                    00:c8:c8:f8:a3:17:31:ac:a3:b0:f7:76:88:66:75:
                    4f:8b:c1:2b:63:35:8c:25:14:f0:ea:d2:46:ba:50:
                    dc:29:98:5a:a2:f1:5b:1b:55:9d:37:26:01:a2:e7:
                    63:7a:3d:60:12:29:94:a2:28:27:70:a5:d2:76:25:
                    20:37:d3:db:4d:4c:00:fe:8f:d7:b6:3f:e4:a8:f2:
                    93:fe:31:7e:7a:d5:95:67:d8:44:65:d4:4d:d0:4e:
                    df:fb:1f:9a:12:04:e6:d0:22:96:fe:21:6f:4b:2c:
                    ba:6b:4a:19:51:b1:3a:9c:df:ef:65:38:99:a1:8d:
                    87:f5:65:8b:54:66:f6:25:ce:e2:4d:10:a7:8d:26:
                    23:c2:62:6a:2e:0a:91:4c:10:8b:a1:61:51:f3:8a:
                    25:aa:34:1e:98:82:23:f2:cb:21:67:26:d3:55:1e:
                    1a:e8:b9:f2:63:cc:14:40:69:cd:ad:ee:12:61:38:
                    f7:ab:2b:a5:ee:15:df:9b:89:bd:d7:f2:ea:0f:f8:
                    40:ff:71:68:44:65:f9:59:34:50:7e:f3:f8:0b:ba:
                    01:1a:39:61:cc:38:b5:14:2f:76:c1:9b:24:fe:0d:
                    e3:5f:26:76:9e:7f:8f:26:82:a7:b9:48:82:b8:1d:
                    10:35:5d:c6:f1:f9:2f:66:a9:10:83:d5:15:d2:97:
                    93:c3
                Exponent: 65537 (0x10001)
        X509v3 extensions:
            X509v3 Basic Constraints: 
                CA:FALSE
            Netscape Comment: 
                OpenSSL Generated Certificate
            X509v3 Subject Key Identifier: 
                38:39:31:53:7C:16:E2:9D:6A:1B:EC:B7:DB:F7:2E:DD:1C:DD:4F:DE
            X509v3 Authority Key Identifier: 
                keyid:D2:FC:16:8D:A2:70:BE:BC:C4:41:87:7A:1D:6E:2F:27:01:E3:2B:BB

    Signature Algorithm: sha256WithRSAEncryption
         13:05:cc:6f:72:28:c0:3d:01:c3:b7:f3:27:5e:af:35:70:8c:
         84:85:29:7c:ba:52:eb:94:c3:59:82:04:3b:ca:55:85:82:5f:
         d4:ae:bd:1c:2d:17:d5:79:ac:49:50:06:cc:f9:51:ab:ed:82:
         2b:ab:1e:30:36:ac:d8:a5:d4:9e:83:dc:7c:63:a5:21:ea:62:
         56:ad:71:b1:db:2f:8a:8a:20:76:8d:20:de:4d:7a:6a:c6:22:
         bf:9a:6a:5d:c8:28:c1:f3:14:e7:8c:65:23:23:14:9e:b9:e5:
         d0:ec:83:29:22:97:97:a1:53:30:45:40:57:85:dc:f5:4a:7a:
         ca:1d:f3:67:eb:0b:a8:1f:08:88:d5:c3:25:ab:21:0d:38:f3:
         c9:b5:d6:c2:30:81:56:ac:af:94:00:2a:da:c7:7c:dc:ba:a5:
         b8:d2:d5:fa:d2:86:cf:34:2c:45:b1:2d:87:9d:82:30:be:36:
         f6:da:be:b2:21:78:f7:aa:9d:6c:fd:5a:21:30:cb:a0:6f:80:
         43:99:71:c1:8f:c0:14:0c:bf:f0:74:50:be:c6:cd:19:a0:87:
         6d:51:9d:93:22:ed:a9:18:4e:2b:ba:9e:d5:6d:06:0e:aa:e3:
         26:e6:84:f5:b2:5f:6f:fd:64:d5:c2:18:f3:ac:05:82:64:d5:
         e2:a3:4c:8f
-----BEGIN CERTIFICATE-----
MIIENjCCAx6gAwIBAgIBAjANBgkqhkiG9w0BAQsFADCBnjELMAkGA1UEBhMCRVMx
EDAOBgNVBAgMB1NldmlsbGUxEDAOBgNVBAcMB1NldmlsbGUxDTALBgNVBAoMBEVU
U0kxHjAcBgNVBAsMFURwdG8gZGUgVGVsZW3Dg8KhdGljYTETMBEGA1UEAwwKbGFw
dG9wLWFtZzEnMCUGCSqGSIb3DQEJARYYYW5kcmVzbWFyZ2FyOThAZ21haWwuY29t
MB4XDTIwMDMyNjIyMzIxMFoXDTIxMDMyNjIyMzIxMFowgaAxCzAJBgNVBAYTAkVT
MRAwDgYDVQQIDAdTZXZpbGxlMRAwDgYDVQQHDAdTZXZpbGxlMQ0wCwYDVQQKDARF
VFNJMR4wHAYDVQQLDBVEcHRvIGRlIFRlbGVtw4PCoXRpY2ExFTATBgNVBAMMDE5p
bnRlbmRvIDNEUzEnMCUGCSqGSIb3DQEJARYYYW5kcmVzbWFyZ2FyOThAZ21haWwu
Y29tMIIBIjANBgkqhkiG9w0BAQEFAAOCAQ8AMIIBCgKCAQEAyMj4oxcxrKOw93aI
ZnVPi8ErYzWMJRTw6tJGulDcKZhaovFbG1WdNyYBoudjej1gEimUoigncKXSdiUg
N9PbTUwA/o/Xtj/kqPKT/jF+etWVZ9hEZdRN0E7f+x+aEgTm0CKW/iFvSyy6a0oZ
UbE6nN/vZTiZoY2H9WWLVGb2Jc7iTRCnjSYjwmJqLgqRTBCLoWFR84olqjQemIIj
8sshZybTVR4a6LnyY8wUQGnNre4SYTj3qyul7hXfm4m91/LqD/hA/3FoRGX5WTRQ
fvP4C7oBGjlhzDi1FC92wZsk/g3jXyZ2nn+PJoKnuUiCuB0QNV3G8fkvZqkQg9UV
0peTwwIDAQABo3sweTAJBgNVHRMEAjAAMCwGCWCGSAGG+EIBDQQfFh1PcGVuU1NM
IEdlbmVyYXRlZCBDZXJ0aWZpY2F0ZTAdBgNVHQ4EFgQUODkxU3wW4p1qG+y32/cu
3RzdT94wHwYDVR0jBBgwFoAU0vwWjaJwvrzEQYd6HW4vJwHjK7swDQYJKoZIhvcN
AQELBQADggEBABMFzG9yKMA9AcO38yderzVwjISFKXy6UuuUw1mCBDvKVYWCX9Su
vRwtF9V5rElQBsz5UavtgiurHjA2rNil1J6D3HxjpSHqYlatcbHbL4qKIHaNIN5N
emrGIr+aal3IKMHzFOeMZSMjFJ655dDsgykil5ehUzBFQFeF3PVKesod82frC6gf
CIjVwyWrIQ0488m11sIwgVasr5QAKtrHfNy6pbjS1frShs80LEWxLYedgjC+Nvba
vrIhePeqnWz9WiEwy6BvgEOZccGPwBQMv/B0UL7GzRmgh21RnZMi7akYTiu6ntVt
Bg6q4ybmhPWyX2/9ZNXCGPOsBYJk1eKjTI8=
-----END CERTIFICATE-----
